target datalayout = "e-m:e-p270:32:32-p271:32:32-p272:64:64-i64:64-i128:128-f80:128-n8:16:32:64-S128"
target triple = "x86_64-pc-linux-gnu"

%struct.slurm_step_id_msg = type { i64, i32, i32, i32 }
%struct.jobs_foreach_t = type { i32, %struct.slurm_step_id_msg, i32, i32, i32, i32 }

@.str.30 = private unnamed_addr constant [11 x i8] c"job_info.c\00", align 1
@foreach_list = internal global ptr null, align 8
@.str.77 = private unnamed_addr constant [3 x i8] c"%u\00", align 1
@stacked_job_list = internal global ptr null, align 8
@__func__.selected_foreach_build_list = private unnamed_addr constant [28 x i8] c"selected_foreach_build_list\00", align 1
@.str.257 = private unnamed_addr constant [3 x i8] c", \00", align 1
@.str.258 = private unnamed_addr constant [3 x i8] c": \00", align 1
@.str.259 = private unnamed_addr constant [6 x i8] c"%u+%u\00", align 1
@.str.260 = private unnamed_addr constant [6 x i8] c"%u_%u\00", align 1
@.str.261 = private unnamed_addr constant [4 x i8] c".%u\00", align 1

; Function Attrs: inlinehint nounwind willreturn memory(read) uwtable
define available_externally i32 @atoi(ptr noundef nonnull %0) #7 {
  %2 = alloca ptr, align 8
  store ptr %0, ptr %2, align 8
  %3 = load ptr, ptr %2, align 8
  %4 = call i64 @strtol(ptr noundef %3, ptr noundef null, i32 noundef 10) #11
  %5 = trunc i64 %4 to i32
  ret i32 %5
}

; Function Attrs: nounwind uwtable
define internal void @selected_foreach_build_list(ptr noundef %0, ptr noundef %1, ptr noundef %2, ptr noundef %3) #0 {
  %5 = alloca ptr, align 8
  %6 = alloca ptr, align 8
  %7 = alloca ptr, align 8
  %8 = alloca ptr, align 8
  %9 = alloca i32, align 4
  %10 = alloca i32, align 4
  %11 = alloca i32, align 4
  %12 = alloca i32, align 4
  %13 = alloca i32, align 4
  %14 = alloca i32, align 4
  %15 = alloca i32, align 4
  %16 = alloca ptr, align 8
  %17 = alloca ptr, align 8
  %18 = alloca ptr, align 8
  %19 = alloca ptr, align 8
  %20 = alloca i32, align 4
  store ptr %0, ptr %5, align 8
  store ptr %1, ptr %6, align 8
  store ptr %2, ptr %7, align 8
  store ptr %3, ptr %8, align 8
  call void @llvm.lifetime.start.p0(i64 4, ptr %9) #11
  store i32 -2, ptr %9, align 4
  call void @llvm.lifetime.start.p0(i64 4, ptr %10) #11
  store i32 -2, ptr %10, align 4
  call void @llvm.lifetime.start.p0(i64 4, ptr %11) #11
  store i32 -2, ptr %11, align 4
  call void @llvm.lifetime.start.p0(i64 4, ptr %12) #11
  store i32 -2, ptr %12, align 4
  call void @llvm.lifetime.start.p0(i64 4, ptr %13) #11
  store i32 -2, ptr %13, align 4
  call void @llvm.lifetime.start.p0(i64 4, ptr %14) #11
  store i32 -2, ptr %14, align 4
  call void @llvm.lifetime.start.p0(i64 4, ptr %15) #11
  call void @llvm.lifetime.start.p0(i64 8, ptr %16) #11
  store ptr null, ptr %16, align 8
  call void @llvm.lifetime.start.p0(i64 8, ptr %17) #11
  call void @llvm.lifetime.start.p0(i64 8, ptr %18) #11
  call void @llvm.lifetime.start.p0(i64 8, ptr %19) #11
  %21 = load ptr, ptr %5, align 8
  %22 = load ptr, ptr %7, align 8
  call void (ptr, ptr, ...) @gtk_tree_model_get(ptr noundef %21, ptr noundef %22, i32 noundef 36, ptr noundef %17, i32 noundef -1)
  %23 = load ptr, ptr %17, align 8
  %24 = icmp ne ptr %23, null
  br i1 %24, label %26, label %25

25:                                               ; preds = %4
  store i32 1, ptr %20, align 4
  br label %129

26:                                               ; preds = %4
  %27 = load ptr, ptr %17, align 8
  %28 = call ptr @strchr(ptr noundef %27, i32 noundef 40) #14
  store ptr %28, ptr %18, align 8
  %29 = load ptr, ptr %18, align 8
  %30 = icmp ne ptr %29, null
  br i1 %30, label %31, label %54

31:                                               ; preds = %26
  %32 = load ptr, ptr %17, align 8
  %33 = call ptr @strchr(ptr noundef %32, i32 noundef 95) #14
  %34 = icmp ne ptr %33, null
  br i1 %34, label %35, label %43

35:                                               ; preds = %31
  %36 = load ptr, ptr %17, align 8
  %37 = call i64 @strtol(ptr noundef %36, ptr noundef %19, i32 noundef 10) #11
  %38 = trunc i64 %37 to i32
  store i32 %38, ptr %11, align 4
  %39 = load ptr, ptr %19, align 8
  %40 = getelementptr inbounds i8, ptr %39, i64 1
  %41 = call i64 @strtol(ptr noundef %40, ptr noundef null, i32 noundef 10) #11
  %42 = trunc i64 %41 to i32
  store i32 %42, ptr %12, align 4
  br label %51

43:                                               ; preds = %31
  %44 = load ptr, ptr %17, align 8
  %45 = call i64 @strtol(ptr noundef %44, ptr noundef %19, i32 noundef 10) #11
  %46 = trunc i64 %45 to i32
  store i32 %46, ptr %13, align 4
  %47 = load ptr, ptr %19, align 8
  %48 = getelementptr inbounds i8, ptr %47, i64 1
  %49 = call i64 @strtol(ptr noundef %48, ptr noundef null, i32 noundef 10) #11
  %50 = trunc i64 %49 to i32
  store i32 %50, ptr %14, align 4
  br label %51

51:                                               ; preds = %43, %35
  %52 = load ptr, ptr %18, align 8
  %53 = getelementptr inbounds nuw i8, ptr %52, i32 1
  store ptr %53, ptr %18, align 8
  br label %56

54:                                               ; preds = %26
  %55 = load ptr, ptr %17, align 8
  store ptr %55, ptr %18, align 8
  br label %56

56:                                               ; preds = %54, %51
  %57 = load ptr, ptr %18, align 8
  %58 = call i32 @atoi(ptr noundef %57) #14
  store i32 %58, ptr %9, align 4
  %59 = load ptr, ptr %17, align 8
  call void @g_free(ptr noundef %59)
  %60 = load ptr, ptr %5, align 8
  %61 = load ptr, ptr %7, align 8
  call void (ptr, ptr, ...) @gtk_tree_model_get(ptr noundef %60, ptr noundef %61, i32 noundef 3, ptr noundef %10, i32 noundef -1)
  %62 = load i32, ptr %10, align 4
  %63 = icmp ne i32 %62, 0
  br i1 %63, label %64, label %65

64:                                               ; preds = %56
  store i32 -2, ptr %10, align 4
  br label %69

65:                                               ; preds = %56
  %66 = load i32, ptr %9, align 4
  store i32 %66, ptr %10, align 4
  %67 = load ptr, ptr %5, align 8
  %68 = load ptr, ptr %7, align 8
  call void (ptr, ptr, ...) @gtk_tree_model_get(ptr noundef %67, ptr noundef %68, i32 noundef 0, ptr noundef %9, i32 noundef -1)
  br label %69

69:                                               ; preds = %65, %64
  %70 = load ptr, ptr %5, align 8
  %71 = load ptr, ptr %7, align 8
  call void (ptr, ptr, ...) @gtk_tree_model_get(ptr noundef %70, ptr noundef %71, i32 noundef 68, ptr noundef %15, i32 noundef -1)
  %72 = call ptr @slurm_xcalloc(i64 noundef 1, i64 noundef 48, i1 noundef zeroext true, i1 noundef zeroext false, ptr noundef @.str.30, i32 noundef 4512, ptr noundef @__func__.selected_foreach_build_list)
  store ptr %72, ptr %16, align 8
  %73 = load i32, ptr %9, align 4
  %74 = load ptr, ptr %16, align 8
  %75 = getelementptr inbounds nuw %struct.jobs_foreach_t, ptr %74, i32 0, i32 1
  %76 = getelementptr inbounds nuw %struct.slurm_step_id_msg, ptr %75, i32 0, i32 1
  store i32 %73, ptr %76, align 8
  %77 = load i32, ptr %10, align 4
  %78 = load ptr, ptr %16, align 8
  %79 = getelementptr inbounds nuw %struct.jobs_foreach_t, ptr %78, i32 0, i32 1
  %80 = getelementptr inbounds nuw %struct.slurm_step_id_msg, ptr %79, i32 0, i32 3
  store i32 %77, ptr %80, align 8
  %81 = load ptr, ptr %16, align 8
  %82 = getelementptr inbounds nuw %struct.jobs_foreach_t, ptr %81, i32 0, i32 1
  %83 = getelementptr inbounds nuw %struct.slurm_step_id_msg, ptr %82, i32 0, i32 2
  store i32 -2, ptr %83, align 4
  %84 = load i32, ptr %15, align 4
  %85 = load ptr, ptr %16, align 8
  %86 = getelementptr inbounds nuw %struct.jobs_foreach_t, ptr %85, i32 0, i32 0
  store i32 %84, ptr %86, align 8
  %87 = load i32, ptr %11, align 4
  %88 = load ptr, ptr %16, align 8
  %89 = getelementptr inbounds nuw %struct.jobs_foreach_t, ptr %88, i32 0, i32 2
  store i32 %87, ptr %89, align 8
  %90 = load i32, ptr %12, align 4
  %91 = load ptr, ptr %16, align 8
  %92 = getelementptr inbounds nuw %struct.jobs_foreach_t, ptr %91, i32 0, i32 3
  store i32 %90, ptr %92, align 4
  %93 = load i32, ptr %13, align 4
  %94 = load ptr, ptr %16, align 8
  %95 = getelementptr inbounds nuw %struct.jobs_foreach_t, ptr %94, i32 0, i32 4
  store i32 %93, ptr %95, align 8
  %96 = load i32, ptr %14, align 4
  %97 = load ptr, ptr %16, align 8
  %98 = getelementptr inbounds nuw %struct.jobs_foreach_t, ptr %97, i32 0, i32 5
  store i32 %96, ptr %98, align 4
  %99 = load ptr, ptr @foreach_list, align 8
  %100 = load ptr, ptr %16, align 8
  call void @list_append(ptr noundef %99, ptr noundef %100)
  %101 = load ptr, ptr @stacked_job_list, align 8
  %102 = icmp ne ptr %101, null
  br i1 %102, label %103, label %104

103:                                              ; preds = %69
  call void @_xstrcat(ptr noundef @stacked_job_list, ptr noundef @.str.257)
  br label %105

104:                                              ; preds = %69
  call void @_xstrcat(ptr noundef @stacked_job_list, ptr noundef @.str.258)
  br label %105

105:                                              ; preds = %104, %103
  %106 = load i32, ptr %12, align 4
  %107 = icmp eq i32 %106, -2
  br i1 %107, label %108, label %113

108:                                              ; preds = %105
  %109 = load i32, ptr %13, align 4
  %110 = icmp eq i32 %109, -2
  br i1 %110, label %111, label %113

111:                                              ; preds = %108
  %112 = load i32, ptr %9, align 4
  call void (ptr, ptr, ...) @_xstrfmtcat(ptr noundef @stacked_job_list, ptr noundef @.str.77, i32 noundef %112)
  br label %123

113:                                              ; preds = %108, %105
  %114 = load i32, ptr %13, align 4
  %115 = icmp ne i32 %114, -2
  br i1 %115, label %116, label %119

116:                                              ; preds = %113
  %117 = load i32, ptr %13, align 4
  %118 = load i32, ptr %14, align 4
  call void (ptr, ptr, ...) @_xstrfmtcat(ptr noundef @stacked_job_list, ptr noundef @.str.259, i32 noundef %117, i32 noundef %118)
  br label %122

119:                                              ; preds = %113
  %120 = load i32, ptr %11, align 4
  %121 = load i32, ptr %12, align 4
  call void (ptr, ptr, ...) @_xstrfmtcat(ptr noundef @stacked_job_list, ptr noundef @.str.260, i32 noundef %120, i32 noundef %121)
  br label %122

122:                                              ; preds = %119, %116
  br label %123

123:                                              ; preds = %122, %111
  %124 = load i32, ptr %10, align 4
  %125 = icmp ne i32 %124, -5
  br i1 %125, label %126, label %128

126:                                              ; preds = %123
  %127 = load i32, ptr %10, align 4
  call void (ptr, ptr, ...) @_xstrfmtcat(ptr noundef @stacked_job_list, ptr noundef @.str.261, i32 noundef %127)
  br label %128

128:                                              ; preds = %126, %123
  store i32 0, ptr %20, align 4
  br label %129

129:                                              ; preds = %128, %25
  call void @llvm.lifetime.end.p0(i64 8, ptr %19) #11
  call void @llvm.lifetime.end.p0(i64 8, ptr %18) #11
  call void @llvm.lifetime.end.p0(i64 8, ptr %17) #11
  call void @llvm.lifetime.end.p0(i64 8, ptr %16) #11
  call void @llvm.lifetime.end.p0(i64 4, ptr %15) #11
  call void @llvm.lifetime.end.p0(i64 4, ptr %14) #11
  call void @llvm.lifetime.end.p0(i64 4, ptr %13) #11
  call void @llvm.lifetime.end.p0(i64 4, ptr %12) #11
  call void @llvm.lifetime.end.p0(i64 4, ptr %11) #11
  call void @llvm.lifetime.end.p0(i64 4, ptr %10) #11
  call void @llvm.lifetime.end.p0(i64 4, ptr %9) #11
  %130 = load i32, ptr %20, align 4
  switch i32 %130, label %132 [
    i32 0, label %131
    i32 1, label %131
  ]

131:                                              ; preds = %129, %129
  ret void

132:                                              ; preds = %129
  unreachable
}