; Function Attrs: nounwind uwtable
define internal void @selected_foreach_build_list(ptr noundef %0, ptr readnone captures(none) %1, ptr noundef %2, ptr readnone captures(none) %3) #0 {
  %5 = alloca i32, align 4
  %6 = alloca i32, align 4
  %7 = alloca i32, align 4
  %8 = alloca ptr, align 8
  %9 = alloca ptr, align 8
  call void @llvm.lifetime.start.p0(i64 4, ptr nonnull %5) #16
  call void @llvm.lifetime.start.p0(i64 4, ptr nonnull %6) #16
  store i32 -2, ptr %6, align 4
  call void @llvm.lifetime.start.p0(i64 4, ptr nonnull %7) #16
  call void @llvm.lifetime.start.p0(i64 8, ptr nonnull %8) #16
  call void @llvm.lifetime.start.p0(i64 8, ptr nonnull %9) #16
  call void (ptr, ptr, ...) @gtk_tree_model_get(ptr noundef %0, ptr noundef %2, i32 noundef 36, ptr noundef nonnull %8, i32 noundef -1) #16
  %10 = load ptr, ptr %8, align 8
  %.not = icmp eq ptr %10, null
  br i1 %.not, label %53, label %11

11:                                               ; preds = %4
  %12 = call ptr @strchr(ptr noundef nonnull dereferenceable(1) %10, i32 noundef 40) #19
  %.not41 = icmp eq ptr %12, null
  br i1 %.not41, label %22, label %13

13:                                               ; preds = %11
  %14 = call ptr @strchr(ptr noundef nonnull dereferenceable(1) %10, i32 noundef 95) #19
  %.not42 = icmp eq ptr %14, null
  %15 = call i64 @strtol(ptr noundef nonnull %10, ptr noundef nonnull %9, i32 noundef 10) #16
  %16 = trunc i64 %15 to i32
  %17 = load ptr, ptr %9, align 8
  %18 = getelementptr inbounds nuw i8, ptr %17, i64 1
  %19 = call i64 @strtol(ptr noundef nonnull captures(none) %18, ptr noundef null, i32 noundef 10) #16
  %20 = trunc i64 %19 to i32
  %. = select i1 %.not42, i32 -2, i32 %16
  %.47 = select i1 %.not42, i32 -2, i32 %20
  %.48 = select i1 %.not42, i32 %16, i32 -2
  %.49 = select i1 %.not42, i32 %20, i32 -2
  %21 = getelementptr inbounds nuw i8, ptr %12, i64 1
  br label %22

22:                                               ; preds = %11, %13
  %.137 = phi i32 [ %., %13 ], [ -2, %11 ]
  %.135 = phi i32 [ %.47, %13 ], [ -2, %11 ]
  %.133 = phi i32 [ %.48, %13 ], [ -2, %11 ]
  %.1 = phi i32 [ %.49, %13 ], [ -2, %11 ]
  %.0 = phi ptr [ %21, %13 ], [ %10, %11 ]
  %23 = call i64 @strtol(ptr noundef nonnull captures(none) %.0, ptr noundef null, i32 noundef 10) #16
  %24 = trunc i64 %23 to i32
  store i32 %24, ptr %5, align 4
  %25 = load ptr, ptr %8, align 8
  call void @g_free(ptr noundef %25) #16
  call void (ptr, ptr, ...) @gtk_tree_model_get(ptr noundef %0, ptr noundef %2, i32 noundef 3, ptr noundef nonnull %6, i32 noundef -1) #16
  %26 = load i32, ptr %6, align 4
  %.not43 = icmp eq i32 %26, 0
  br i1 %.not43, label %28, label %27

27:                                               ; preds = %22
  store i32 -2, ptr %6, align 4
  br label %29

28:                                               ; preds = %22
  store i32 %24, ptr %6, align 4
  call void (ptr, ptr, ...) @gtk_tree_model_get(ptr noundef %0, ptr noundef %2, i32 noundef 0, ptr noundef nonnull %5, i32 noundef -1) #16
  br label %29

29:                                               ; preds = %28, %27
  call void (ptr, ptr, ...) @gtk_tree_model_get(ptr noundef %0, ptr noundef %2, i32 noundef 68, ptr noundef nonnull %7, i32 noundef -1) #16
  %30 = call ptr @slurm_xcalloc(i64 noundef 1, i64 noundef 48, i1 noundef zeroext true, i1 noundef zeroext false, ptr noundef nonnull @.str.30, i32 noundef 4512, ptr noundef nonnull @__func__.selected_foreach_build_list) #16
  %31 = load i32, ptr %5, align 4
  %32 = getelementptr inbounds nuw i8, ptr %30, i64 16
  store i32 %31, ptr %32, align 8
  %33 = load i32, ptr %6, align 4
  %34 = getelementptr inbounds nuw i8, ptr %30, i64 24
  store i32 %33, ptr %34, align 8
  %35 = getelementptr inbounds nuw i8, ptr %30, i64 20
  store i32 -2, ptr %35, align 4
  %36 = load i32, ptr %7, align 4
  store i32 %36, ptr %30, align 8
  %37 = getelementptr inbounds nuw i8, ptr %30, i64 32
  store i32 %.137, ptr %37, align 8
  %38 = getelementptr inbounds nuw i8, ptr %30, i64 36
  store i32 %.135, ptr %38, align 4
  %39 = getelementptr inbounds nuw i8, ptr %30, i64 40
  store i32 %.133, ptr %39, align 8
  %40 = getelementptr inbounds nuw i8, ptr %30, i64 44
  store i32 %.1, ptr %40, align 4
  %41 = load ptr, ptr @foreach_list, align 8
  call void @list_append(ptr noundef %41, ptr noundef nonnull %30) #16
  %42 = load ptr, ptr @stacked_job_list, align 8
  %.not44 = icmp eq ptr %42, null
  %.str.258..str.257 = select i1 %.not44, ptr @.str.258, ptr @.str.257
  call void @_xstrcat(ptr noundef nonnull @stacked_job_list, ptr noundef nonnull %.str.258..str.257) #16
  %43 = icmp eq i32 %.135, -2
  %44 = icmp eq i32 %.133, -2
  %or.cond = select i1 %43, i1 %44, i1 false
  br i1 %or.cond, label %45, label %47

45:                                               ; preds = %29
  %46 = load i32, ptr %5, align 4
  call void (ptr, ptr, ...) @_xstrfmtcat(ptr noundef nonnull @stacked_job_list, ptr noundef nonnull @.str.77, i32 noundef %46) #16
  br label %50

47:                                               ; preds = %29
  br i1 %44, label %49, label %48

48:                                               ; preds = %47
  call void (ptr, ptr, ...) @_xstrfmtcat(ptr noundef nonnull @stacked_job_list, ptr noundef nonnull @.str.259, i32 noundef %.133, i32 noundef %.1) #16
  br label %50

49:                                               ; preds = %47
  call void (ptr, ptr, ...) @_xstrfmtcat(ptr noundef nonnull @stacked_job_list, ptr noundef nonnull @.str.260, i32 noundef %.137, i32 noundef %.135) #16
  br label %50

50:                                               ; preds = %48, %49, %45
  %51 = load i32, ptr %6, align 4
  %.not46 = icmp eq i32 %51, -5
  br i1 %.not46, label %53, label %52

52:                                               ; preds = %50
  call void (ptr, ptr, ...) @_xstrfmtcat(ptr noundef nonnull @stacked_job_list, ptr noundef nonnull @.str.261, i32 noundef %51) #16
  br label %53

53:                                               ; preds = %50, %52, %4
  call void @llvm.lifetime.end.p0(i64 8, ptr nonnull %9) #16
  call void @llvm.lifetime.end.p0(i64 8, ptr nonnull %8) #16
  call void @llvm.lifetime.end.p0(i64 4, ptr nonnull %7) #16
  call void @llvm.lifetime.end.p0(i64 4, ptr nonnull %6) #16
  call void @llvm.lifetime.end.p0(i64 4, ptr nonnull %5) #16
  ret void
}